; Function Attrs: nounwind uwtable
define nonnull ptr @l___private_Std_Net_Addr_0__Std_Net_decEqIPv6Addr____x40_Std_Net_Addr___hyg_433____boxed(ptr noundef %0, ptr noundef %1) local_unnamed_addr #0 {
  tail call void @lean_inc_heartbeat() #7
  %3 = tail call noalias ptr @mi_malloc_small(i64 noundef 24) #7
  %4 = icmp eq ptr %3, null
  br i1 %4, label %5, label %l___private_Std_Net_Addr_0__Std_Net_decEqIPv6Addr____x40_Std_Net_Addr___hyg_433_.exit

5:                                                ; preds = %2
  tail call void @lean_internal_panic_out_of_memory() #8
  unreachable

l___private_Std_Net_Addr_0__Std_Net_decEqIPv6Addr____x40_Std_Net_Addr___hyg_433_.exit: ; preds = %2
  %6 = getelementptr inbounds nuw i8, ptr %3, i64 4
  store i32 1, ptr %3, align 4, !tbaa !8
  store i32 -184549352, ptr %6, align 4
  %7 = getelementptr inbounds nuw i8, ptr %3, i64 8
  store ptr @l_instDecidableEqUInt16___boxed, ptr %7, align 8, !tbaa !4
  %8 = getelementptr inbounds nuw i8, ptr %3, i64 16
  store i16 2, ptr %8, align 8, !tbaa !11
  %9 = getelementptr inbounds nuw i8, ptr %3, i64 18
  store i16 0, ptr %9, align 2, !tbaa !11
  %10 = tail call zeroext i8 @l_Array_instDecidableEq___rarg(ptr noundef nonnull %3, ptr noundef %0, ptr noundef %1) #7
  %11 = ptrtoint ptr %1 to i64
  %12 = and i64 %11, 1
  %.not = icmp eq i64 %12, 0
  br i1 %.not, label %13, label %lean_dec.exit5

13:                                               ; preds = %l___private_Std_Net_Addr_0__Std_Net_decEqIPv6Addr____x40_Std_Net_Addr___hyg_433_.exit
  %14 = load i32, ptr %1, align 4, !tbaa !8
  %15 = icmp sgt i32 %14, 1
  br i1 %15, label %16, label %18, !prof !13

16:                                               ; preds = %13
  %17 = add nsw i32 %14, -1
  store i32 %17, ptr %1, align 4, !tbaa !8
  br label %lean_dec.exit5

18:                                               ; preds = %13
  %.not.i = icmp eq i32 %14, 0
  br i1 %.not.i, label %lean_dec.exit5, label %19

19:                                               ; preds = %18
  tail call void @lean_dec_ref_cold(ptr noundef nonnull %1) #7
  br label %lean_dec.exit5

lean_dec.exit5:                                   ; preds = %19, %18, %16, %l___private_Std_Net_Addr_0__Std_Net_decEqIPv6Addr____x40_Std_Net_Addr___hyg_433_.exit
  %20 = ptrtoint ptr %0 to i64
  %21 = and i64 %20, 1
  %.not8 = icmp eq i64 %21, 0
  br i1 %.not8, label %22, label %lean_dec.exit

22:                                               ; preds = %lean_dec.exit5
  %23 = load i32, ptr %0, align 4, !tbaa !8
  %24 = icmp sgt i32 %23, 1
  br i1 %24, label %25, label %27, !prof !13

25:                                               ; preds = %22
  %26 = add nsw i32 %23, -1
  store i32 %26, ptr %0, align 4, !tbaa !8
  br label %lean_dec.exit

27:                                               ; preds = %22
  %.not.i6 = icmp eq i32 %23, 0
  br i1 %.not.i6, label %lean_dec.exit, label %28

28:                                               ; preds = %27
  tail call void @lean_dec_ref_cold(ptr noundef nonnull %0) #7
  br label %lean_dec.exit

lean_dec.exit:                                    ; preds = %28, %27, %25, %lean_dec.exit5
  %29 = zext i8 %10 to i64
  %30 = shl nuw nsw i64 %29, 1
  %31 = or disjoint i64 %30, 1
  %32 = inttoptr i64 %31 to ptr
  ret ptr %32
}